(dp0
(I6
I3
tp1
S'{"111001": [3, 2, 5, 2, 7, 2, 3, 2, 11], "100001": [3, 2, 5, 2, 7, 2, 3, 2, 11], "110011": [3, 2, 5, 2, 7, 2, 3, 2, 11]}'
p2
s(I16
I50
tp3
S'{"1100010100111111": [5, 2, 17, 2, 5, 2, 5, 2, 7], "1010100000110001": [7, 2, 3, 2, 43, 2, 31, 2, 3], "1100011110000101": [13, 2, 37, 2, 71, 2, 31, 2, 13], "1110110111001111": [3, 2, 3, 2, 7, 2, 3, 2, 3], "1110001011000101": [3, 2, 5, 2, 7, 2, 3, 2, 11], "1100000011011011": [3, 2, 5, 2, 7, 2, 3, 2, 11], "1001001101110001": [5, 2, 10271, 2, 11, 2, 251, 2, 17], "1011101101010101": [7, 2, 11, 2, 5, 2, 17, 2, 41], "1010001100110101": [3, 2, 5, 2, 7, 2, 3, 2, 11], "1110001110000001": [139, 19, 13, 37, 281, 23, 7, 11, 23], "1001101010111101": [7, 2, 1013, 2, 5, 2, 11, 2, 257], "1010100110001111": [3, 5, 3, 3, 43, 3, 3, 7, 3], "1111011110010011": [61, 5, 7, 373, 17, 11, 5, 101, 7], "1111110011001111": [3, 2, 3, 2, 7, 2, 3, 2, 3], "1011110000110101": [7, 13, 3, 31, 13, 3, 23, 7, 3], "1101011111101101": [167, 2, 3, 2, 107, 2, 53, 2, 3], "1100000000011101": [11, 2, 3, 2, 1297, 2, 17, 2, 3], "1110111010000101": [7, 5, 3, 23, 43, 3, 5, 7, 3], "1111110011111001": [3, 2, 3, 2, 7, 2, 3, 2, 3], "1110010110110101": [5, 2, 17, 2, 5, 2, 5, 2, 101], "1100000000100111": [3, 2, 3, 2, 7, 2, 3, 2, 3], "1111111100011011": [3, 2, 3, 2, 7, 2, 3, 2, 3], "1010100101110011": [7, 5, 3, 31, 23, 3, 5, 7, 3], "1000000111100111": [3, 2, 5, 2, 7, 2, 3, 2, 11], "1001001001110111": [5, 409, 3, 47, 138469, 3, 31, 4001, 3], "1000011010111111": [5, 2, 11, 2, 5, 2, 5, 2, 71], "1010100101111011": [43, 2, 23, 2, 5, 2, 127, 2, 19], "1101001000100001": [3, 2, 3, 2, 7, 2, 3, 2, 3], "1001110101000001": [3, 5, 37, 3, 15907, 117191, 3, 7, 446417], "1110100110111111": [13, 2, 3, 2, 91807, 2, 53, 2, 3], "1100011010100101": [3, 2, 5, 2, 7, 2, 3, 2, 11], "1110001111110111": [3, 2, 3, 2, 7, 2, 3, 2, 3], "1011110111111111": [3, 2, 5, 2, 7, 2, 3, 2, 11], "1110011111011011": [3, 2, 3, 2, 7, 2, 3, 2, 3], "1110110000100011": [61, 2, 41, 2, 787, 2, 929, 2, 7549], "1010010100110001": [13, 5, 21613, 89, 61, 53, 5, 37, 19], "1111000100100011": [3, 2, 5, 2, 7, 2, 3, 2, 11], "1100011111101111": [3, 2, 3, 2, 7, 2, 3, 2, 3], "1101010110110011": [227, 2, 11, 2, 5, 2, 773, 2, 1831], "1101000010110011": [3, 2, 5, 2, 7, 2, 3, 2, 11], "1101001100100111": [5, 7, 3, 47, 17, 3, 47, 11, 3], "1110011100101011": [23, 2, 19, 2, 5, 2, 884309, 2, 7853723], "1101010110010101": [7, 5, 3, 19, 19, 3, 5, 5, 3], "1010000100011111": [3, 2, 5, 2, 7, 2, 3, 2, 11], "1010000100001001": [5, 67, 29, 10891, 5, 5, 2707, 11, 61], "1011011010100111": [19, 2, 19, 2, 5, 2, 139, 2, 107], "1111001100100011": [67, 11, 3, 7, 515693, 3, 13, 7211, 3], "1100100000110111": [3, 2, 5, 2, 7, 2, 3, 2, 7], "1000011100110111": [5, 13, 3, 17, 43, 3, 11, 7, 3], "1000011010010111": [3, 2, 5, 2, 7, 2, 3, 2, 11]}'
p4
s(I32
I500
tp5
S'{"10111011111111110001110010001111": [7, 2, 11, 2, 11, 2, 11, 2, 7], "10101111000010100111000010001101": [3, 13, 3, 3, 5, 3, 3, 7, 3], "11110101011011001000100010100101": [3, 2, 5, 2, 7, 2, 3, 2, 11], "11011111100100110111101010110111": [3, 2, 5, 2, 7, 2, 3, 2, 11], "10000100110100011100000110001001": [59, 2, 3, 2, 11, 2, 13, 2, 3], "11001000111010101011011001011111": [3, 5, 13, 3, 31, 43, 3, 7, 7], "11000111100011111110000001101101": [3, 2, 3, 2, 7, 2, 3, 2, 3], "10010011111101110000111111101111": [3, 2, 5, 2, 7, 2, 3, 2, 11], "11101000011011100111010000000001": [3, 2, 5, 2, 7, 2, 3, 2, 11], "10001111011111111101011111111111": [5, 2, 13, 2, 37, 2, 5, 2, 17], "11010110110111110000100011101001": [3, 2, 3, 2, 7, 2, 3, 2, 3], "11001110110100100010100100010111": [3, 2, 5, 2, 7, 2, 3, 2, 11], "11011011101101010110111111001011": [3, 2, 5, 2, 7, 2, 3, 2, 11], "11011100100100110001001000101111": [3, 2, 5, 2, 7, 2, 3, 2, 7], "10110100011111110001111110110101": [3, 5, 3, 3, 29, 3, 3, 23, 3], "11010111110111001000111010101101": [3, 2, 5, 2, 5, 2, 3, 2, 11], "10100001100011100011011001010111": [3, 2, 5, 2, 7, 2, 3, 2, 11], "10011011000111100000100011010111": [3, 2, 5, 2, 7, 2, 3, 2, 11], "10100001010101001010111101010101": [5, 2, 17, 2, 37, 2, 5, 2, 19], "11111101011101100101111110001001": [3, 7, 3, 3, 29, 3, 3, 73, 3], "11100110101101010101010100111001": [11, 2, 3, 2, 17, 2, 43, 2, 3], "10011011010101001100111010100001": [3, 2, 5, 2, 7, 2, 3, 2, 7], "11001011100101000110000011100001": [3, 2, 5, 2, 7, 2, 3, 2, 11], "11001010100010011101101100011111": [37, 2, 3, 2, 11, 2, 5, 2, 3], "11000011010010111100100000001101": [3, 2, 5, 2, 7, 2, 3, 2, 11], "11001010110010101101000101011001": [3, 2, 5, 2, 7, 2, 3, 2, 11], "11001000011111110110011001010001": [3, 7, 13, 3, 31, 5, 3, 37, 7], "10101000111011110101101010000111": [7, 2, 3, 2, 19, 2, 29, 2, 3], "10000010111000010010010011011101": [3, 2, 5, 2, 7, 2, 3, 2, 7], "10001111001111111101110010001101": [3, 2, 5, 2, 5, 2, 3, 2, 11], "10010110100111011110101011001001": [19, 2, 3, 2, 11, 2, 47, 2, 3], "11010000011010100100110111111011": [3, 2, 3, 2, 7, 2, 3, 2, 3], "11110110111000101100110110001011": [3, 5, 13, 3, 31, 43, 3, 73, 7], "11010111011001011000000010010111": [5, 2, 7, 2, 37, 2, 5, 2, 17], "10010111100011100101111111101111": [3, 2, 5, 2, 7, 2, 3, 2, 11], "10000100010011001011100010110101": [3, 2, 5, 2, 7, 2, 3, 2, 11], "11000001000101101110101001101101": [3, 2, 5, 2, 7, 2, 3, 2, 11], "10001001000101101001010100111101": [3, 7, 3, 3, 5, 3, 3, 37, 3], "11000100011010000000010010101101": [3, 2, 3, 2, 7, 2, 3, 2, 3], "10010110110001101111101110000101": [3, 2, 3, 2, 7, 2, 3, 2, 3], "10111100111001110111001011100111": [7, 13, 3, 13, 19, 3, 7, 7, 3], "10100111000011111010010000011101": [3, 2, 5, 2, 7, 2, 3, 2, 11], "10000101010001101001011010010011": [5, 2, 17, 2, 37, 2, 5, 2, 31], "10010011101001011101111110100001": [3, 2, 3, 2, 7, 2, 3, 2, 3], "10000011100001010100011101011111": [5, 2, 17, 2, 11, 2, 5, 2, 19], "10011101100110101111001001000111": [3, 2, 3, 2, 7, 2, 3, 2, 3], "10100001110001010110100000101011": [5, 2, 17, 2, 37, 2, 5, 2, 47], "11111011111011001110000001011111": [53, 5, 3, 67, 23, 3, 5, 23, 3], "10111100100001010001001011100001": [3, 2, 5, 2, 7, 2, 3, 2, 11], "11110101110001011100100101001101": [3, 2, 3, 2, 41, 2, 3, 2, 3], "10010111001110001111101000101011": [5, 2, 3, 2, 73, 2, 19, 2, 3], "11011010100111011100111110110001": [3, 2, 5, 2, 5, 2, 3, 2, 7], "10001100100011111100010000110111": [3, 2, 5, 2, 7, 2, 3, 2, 7], "11111011011110101110111100010101": [3, 2, 5, 2, 7, 2, 3, 2, 11], "10100100110111000111000100111111": [5, 2, 3, 2, 37, 2, 5, 2, 3], "10101101011001111101101100000011": [3, 2, 3, 2, 7, 2, 3, 2, 3], "11101101010110001110110101111101": [3, 19, 3, 3, 41, 3, 3, 11, 3], "11111010100110000011110101110001": [3, 2, 3, 2, 7, 2, 3, 2, 3], "11100111001111101011110000010111": [3, 2, 5, 2, 5, 2, 3, 2, 11], "11000101100111111100100010000011": [3, 2, 5, 2, 7, 2, 3, 2, 11], "10110000110001001110110000010011": [3, 2, 5, 2, 7, 2, 3, 2, 11], "10100101011111101010110001100011": [7, 2, 3, 2, 43, 2, 67, 2, 3], "10100111000011010011010110000101": [3, 11, 3, 3, 5, 3, 3, 11, 3], "11001100001011100111001100011111": [3, 2, 3, 2, 7, 2, 3, 2, 3], "11001011111111001100001101110011": [3, 2, 5, 2, 5, 2, 3, 2, 11], "10100010100101000111011110010011": [3, 2, 5, 2, 7, 2, 3, 2, 11], "11100001000110011110001101110111": [7, 2, 3, 2, 19, 2, 17, 2, 3], "11101110000100001010011100000111": [7, 5, 3, 31, 5, 3, 5, 7, 3], "10000111011011010011100011111001": [3, 2, 3, 2, 7, 2, 3, 2, 3], "10100111111001100111010000101011": [7, 2, 3, 2, 43, 2, 5, 2, 3], "10011001111101001010010110100111": [3, 2, 3, 2, 7, 2, 3, 2, 3], "11100000010101000010010000101101": [7, 2, 3, 2, 43, 2, 5, 2, 3], "10101110000110011100001111101011": [7, 2, 3, 2, 43, 2, 73, 2, 3], "11100010101110000001010110110101": [3, 2, 5, 2, 7, 2, 3, 2, 11], "11111110010001100000010100011111": [3, 7, 13, 3, 31, 5, 3, 73, 7], "11010000101011000010111001000101": [3, 2, 5, 2, 7, 2, 3, 2, 11], "11101001100111011111100001100111": [3, 2, 5, 2, 5, 2, 3, 2, 11], "11100100000011001011111001001101": [3, 2, 5, 2, 7, 2, 3, 2, 11], "11000100011001011010111011011011": [3, 2, 3, 2, 7, 2, 3, 2, 3], "11001110110101100010000011000111": [3, 2, 5, 2, 7, 2, 3, 2, 11], "11011010010111101000100001111101": [3, 2, 3, 2, 7, 2, 3, 2, 3], "10010101000000110110101000010001": [5, 2, 3, 2, 67, 2, 11, 2, 3], "10011101111000101101010110000111": [7, 2, 3, 2, 43, 2, 73, 2, 3], "11010110001010110011001001000001": [3, 2, 5, 2, 7, 2, 3, 2, 11], "11111111100010110011100000111011": [13, 2, 29, 2, 5, 2, 11, 2, 7], "11100110101111010010010011010011": [3, 2, 3, 2, 7, 2, 3, 2, 3], "10011100000010000000110010011101": [3, 2, 3, 2, 7, 2, 3, 2, 3], "11001000011000110110011011011111": [3, 2, 3, 2, 7, 2, 3, 2, 3], "10101100100111010000000100001001": [3, 2, 3, 2, 7, 2, 3, 2, 3], "11100111010100111111011101010101": [7, 13, 3, 31, 7, 3, 7, 7, 3], "10000100111111111010000000111111": [5, 2, 3, 2, 37, 2, 5, 2, 3], "11101000010100000101111111101011": [3, 2, 3, 2, 7, 2, 3, 2, 3], "11111110010011000010001100001101": [3, 2, 5, 2, 7, 2, 3, 2, 11], "10001101100100100010111010001011": [7, 5, 3, 31, 5, 3, 5, 5, 3], "10111000010011011111101110101001": [3, 7, 13, 3, 31, 43, 3, 31, 7], "11110010111011010010001101111011": [13, 2, 41, 2, 5, 2, 5, 2, 7], "10011000100110000100110110011001": [3, 2, 5, 2, 7, 2, 3, 2, 11], "10100100001000100100010000110001": [3, 2, 5, 2, 5, 2, 3, 2, 11], "10010100011100100100110001000011": [3, 7, 13, 3, 31, 5, 3, 73, 7], "10111011111000010111101001000101": [3, 2, 3, 2, 7, 2, 3, 2, 3], "10111110101001010001110010011101": [3, 2, 3, 2, 7, 2, 3, 2, 3], "10010001011000111011001101111011": [3, 2, 3, 2, 7, 2, 3, 2, 3], "10001100001101111110111010111011": [5, 2, 17, 2, 5, 2, 5, 2, 7], "11000001101101100100001000100001": [3, 2, 3, 2, 7, 2, 3, 2, 3], "10111010000101111000001101011111": [3, 2, 3, 2, 7, 2, 3, 2, 3], "10001001111100001111010000111001": [3, 2, 5, 2, 7, 2, 3, 2, 11], "10011000101110000001010010010111": [3, 2, 5, 2, 7, 2, 3, 2, 11], "10000110001011111111010011100011": [37, 2, 3, 2, 19, 2, 47, 2, 3], "11000010101001010110000111000011": [3, 2, 5, 2, 7, 2, 3, 2, 11], "11001100001100100011111100000111": [3, 2, 5, 2, 7, 2, 3, 2, 11], "11101011100100111111010011010011": [3, 2, 5, 2, 5, 2, 3, 2, 7], "10111111111101100000101001010111": [3, 2, 5, 2, 5, 2, 3, 2, 11], "10011110010001000001011000000001": [3, 7, 13, 3, 31, 43, 3, 11, 7], "10010100101100001000110111100001": [3, 2, 5, 2, 7, 2, 3, 2, 7], "11000010100110100010001011000001": [5, 2, 3, 2, 37, 2, 5, 2, 3], "11110101010010101100000010100101": [79, 5, 3, 7, 5, 3, 5, 17, 3], "11111001111011001111010011011011": [3, 2, 5, 2, 7, 2, 3, 2, 11], "11101101001100100100100110001101": [3, 2, 5, 2, 7, 2, 3, 2, 11], "11101001011110111001010000000011": [3, 2, 5, 2, 7, 2, 3, 2, 11], "11011011001100001001000010111011": [7, 2, 73, 2, 11, 2, 17, 2, 19], "10010001001110111001100001111001": [3, 2, 5, 2, 7, 2, 3, 2, 11], "11001001101110110011010110011001": [3, 2, 3, 2, 7, 2, 3, 2, 3], "11100100001111111011100011010001": [3, 2, 3, 2, 7, 2, 3, 2, 3], "11101100000010011110110000011101": [3, 2, 5, 2, 7, 2, 3, 2, 11], "10100111001010001111010011010001": [3, 2, 5, 2, 7, 2, 3, 2, 11], "11110011110011100101011100011101": [5, 2, 17, 2, 5, 2, 5, 2, 7], "11101100100001000111011101010111": [23, 2, 3, 2, 17, 2, 5, 2, 3], "11001101101010100001010111111111": [3, 2, 5, 2, 5, 2, 3, 2, 11], "10010111111010011111011010110001": [3, 2, 5, 2, 5, 2, 3, 2, 7], "11011101011110101110100110001111": [7, 7, 3, 31, 43, 3, 7, 7, 3], "11110000000010011101000100011001": [3, 5, 11, 3, 31, 43, 3, 73, 7], "10011101111000001010101101010111": [3, 2, 3, 2, 7, 2, 3, 2, 3], "10110010110100010100000110101001": [3, 2, 5, 2, 7, 2, 3, 2, 7], "10011111111010101100101010111011": [17, 5, 3, 73, 7, 3, 5, 11, 3], "10111100101100110001011110000001": [3, 2, 5, 2, 7, 2, 3, 2, 11], "10010111111110101101001001100111": [3, 2, 5, 2, 5, 2, 3, 2, 11], "11101110111111100101000010000101": [3, 2, 3, 2, 7, 2, 3, 2, 3], "10010101001111110010011110111011": [3, 2, 5, 2, 5, 2, 3, 2, 11], "10011111100110100111010110111001": [3, 2, 5, 2, 5, 2, 3, 2, 11], "10011011001010010111111000110101": [3, 2, 3, 2, 7, 2, 3, 2, 3], "10111100010010011001100000101101": [7, 13, 3, 31, 5, 3, 73, 7, 3], "11010000101010110100001110010001": [3, 2, 5, 2, 7, 2, 3, 2, 7], "11110011111011101110001010110001": [17, 2, 7, 2, 5, 2, 61, 2, 23], "10110000110011001010011110101101": [3, 7, 13, 3, 17, 5, 3, 73, 7], "10111110100100111101110011111101": [3, 2, 5, 2, 7, 2, 3, 2, 11], "11000110011000111001000110100111": [3, 2, 5, 2, 7, 2, 3, 2, 11], "11100001101000100001010111101011": [7, 2, 53, 2, 31, 2, 23, 2, 47], "11000110101110101111001101010111": [3, 2, 5, 2, 5, 2, 3, 2, 11], "10010001011001110110001000100011": [3, 2, 5, 2, 7, 2, 3, 2, 11], "10101110101001010100011110000001": [7, 13, 3, 31, 5, 3, 73, 7, 3], "10100111000110111100011100110011": [3, 2, 3, 2, 7, 2, 3, 2, 3], "11000101110111110111010001100001": [3, 2, 3, 2, 17, 2, 3, 2, 3], "10111100100000111010001101010101": [3, 2, 5, 2, 7, 2, 3, 2, 11], "11000111100110101100000101100011": [3, 2, 5, 2, 7, 2, 3, 2, 11], "11111110001011110101010101010101": [3, 2, 23, 2, 5, 2, 3, 2, 17], "11000010000101111111000001001101": [3, 19, 3, 3, 5, 3, 3, 79, 3], "10000111011110100101100000000101": [5, 2, 17, 2, 13, 2, 5, 2, 53], "10000010011101010000011011101111": [3, 2, 5, 2, 7, 2, 3, 2, 11], "11100111111000000010010000111101": [3, 2, 5, 2, 7, 2, 3, 2, 11], "11100001110101000001110000100011": [5, 2, 17, 2, 37, 2, 5, 2, 31], "10001100001010000001000100000111": [3, 2, 5, 2, 5, 2, 3, 2, 11], "10110110010101001001111111101011": [3, 2, 5, 2, 5, 2, 3, 2, 11], "11101100000101110110111011001111": [3, 2, 5, 2, 5, 2, 3, 2, 11], "11111111100101110011001000001111": [3, 2, 5, 2, 5, 2, 3, 2, 11], "11101011010101101001010010100001": [3, 2, 5, 2, 7, 2, 3, 2, 11], "11000010001101011010000001110011": [3, 2, 5, 2, 7, 2, 3, 2, 11], "11101110001001001011000000001111": [3, 7, 3, 3, 5, 3, 3, 7, 3], "11110001001001011111101001111011": [3, 2, 5, 2, 5, 2, 3, 2, 11], "10100011101110100010001001111111": [3, 2, 3, 2, 43, 2, 3, 2, 3], "11100101000111010000110010101001": [7, 13, 3, 31, 5, 3, 73, 7, 3], "10100110000001100100101011111101": [79, 2, 7, 2, 59, 2, 5, 2, 61], "11110011011101100011011110010101": [5, 2, 7, 2, 5, 2, 83, 2, 43], "10110001111110100111010001001011": [3, 2, 3, 2, 7, 2, 3, 2, 3], "11100001111111001011011100001001": [3, 2, 3, 2, 7, 2, 3, 2, 3], "11101111000100000100010010001111": [7, 5, 3, 7, 5, 3, 5, 7, 3], "11100111110111110010000111101111": [3, 2, 5, 2, 7, 2, 3, 2, 11], "10010011111001010000000101110001": [5, 2, 7, 2, 13, 2, 7, 2, 13], "10111011001000101101011001010001": [3, 2, 5, 2, 7, 2, 3, 2, 11], "11010101010111101011000010100111": [5, 2, 3, 2, 37, 2, 5, 2, 3], "10000110110011000111100011001101": [3, 2, 5, 2, 7, 2, 3, 2, 11], "11011010111100011000110110110111": [3, 2, 5, 2, 5, 2, 3, 2, 11], "10010011101100101100011110001111": [7, 2, 3, 2, 43, 2, 73, 2, 3], "11111001111000100011010111001001": [3, 2, 3, 2, 7, 2, 3, 2, 3], "11100100101010110001000010011101": [7, 5, 3, 31, 5, 3, 5, 7, 3], "11100110000010110010011011010011": [5, 2, 11, 2, 17, 2, 19, 2, 23], "11111000110110110001111111000011": [3, 2, 5, 2, 5, 2, 3, 2, 11], "11100101011110101110110011000001": [3, 2, 3, 2, 7, 2, 3, 2, 3], "11000100101001111110100011010111": [3, 2, 3, 2, 7, 2, 3, 2, 3], "11100010011111000000100101001111": [3, 2, 5, 2, 7, 2, 3, 2, 11], "11011001110100000010101100010101": [3, 7, 3, 3, 5, 3, 3, 7, 3], "10011000011110000100001111011011": [3, 2, 5, 2, 7, 2, 3, 2, 7], "11010000111011110010010000100001": [3, 2, 5, 2, 7, 2, 3, 2, 7], "10110010011101010111001110111011": [3, 2, 5, 2, 5, 2, 3, 2, 11], "11000000100001000010011010011101": [3, 2, 3, 2, 7, 2, 3, 2, 3], "11111111010100111110001000000011": [3, 2, 3, 2, 7, 2, 3, 2, 3], "10111110101001110111100100000101": [3, 2, 3, 2, 7, 2, 3, 2, 3], "11110010110100010100110010001011": [3, 2, 5, 2, 7, 2, 3, 2, 11], "11110000110100110110000110100011": [3, 2, 5, 2, 7, 2, 3, 2, 11], "11110000010111101000100100111111": [3, 2, 3, 2, 7, 2, 3, 2, 3], "10000111111100100100000111010101": [5, 2, 11, 2, 19, 2, 5, 2, 13], "10110110010111011111100000111011": [3, 2, 5, 2, 5, 2, 3, 2, 11], "11101110100100100001110011000101": [3, 2, 5, 2, 7, 2, 3, 2, 7], "11100001100101000000100010110111": [3, 2, 5, 2, 7, 2, 3, 2, 11], "11111110010001100100100000001001": [3, 2, 5, 2, 7, 2, 3, 2, 11], "11001100000010111001110011000111": [3, 2, 5, 2, 7, 2, 3, 2, 11], "11110000011011010011000011011111": [5, 2, 3, 2, 37, 2, 5, 2, 3], "11101100100100001000101110110001": [3, 7, 3, 3, 5, 3, 3, 73, 3], "10111111101000111100100010101001": [3, 2, 3, 2, 11, 2, 3, 2, 3], "11000001111100101001011001010001": [3, 19, 3, 3, 5, 3, 3, 7, 3], "10110110001101111000000100000011": [3, 2, 5, 2, 7, 2, 3, 2, 11], "11111111001111101100100001010011": [3, 2, 5, 2, 5, 2, 3, 2, 11], "10010011111001010110001010010011": [3, 2, 5, 2, 7, 2, 3, 2, 11], "10110110011011101100010001100111": [3, 2, 3, 2, 7, 2, 3, 2, 3], "10110110110001101110110111011111": [3, 2, 5, 2, 7, 2, 3, 2, 11], "10110011000100000110011111010011": [13, 2, 71, 2, 13, 2, 37, 2, 17], "11100000110011011110111100110111": [3, 2, 5, 2, 5, 2, 3, 2, 11], "11001010010110000111100100001001": [3, 2, 5, 2, 7, 2, 3, 2, 7], "10110110111011000101111001011011": [3, 2, 5, 2, 5, 2, 3, 2, 11], "11001101011000111001101011011001": [3, 2, 3, 2, 7, 2, 3, 2, 3], "11011000001001001011111100111101": [3, 2, 3, 2, 7, 2, 3, 2, 3], "10111110011100000011110110000111": [3, 2, 3, 2, 7, 2, 3, 2, 3], "11100101001010110001111111000011": [3, 2, 3, 2, 7, 2, 3, 2, 3], "10110101001011001010011100000001": [3, 2, 5, 2, 7, 2, 3, 2, 11], "11100011000000111110010101111011": [3, 2, 3, 2, 7, 2, 3, 2, 3], "11111000011000101101001101111001": [3, 2, 3, 2, 7, 2, 3, 2, 3], "10101010011010101001110101010111": [5, 2, 3, 2, 37, 2, 5, 2, 3], "11000101111011101000001100000001": [3, 2, 5, 2, 7, 2, 3, 2, 11], "10001010011110101001011011010111": [5, 2, 3, 2, 37, 2, 5, 2, 3], "10100100011111110000111000100101": [3, 2, 5, 2, 7, 2, 3, 2, 11], "11001111100001001110011011011111": [3, 2, 5, 2, 5, 2, 3, 2, 7], "10001110011000001100000001100101": [3, 2, 3, 2, 7, 2, 3, 2, 3], "11010011010010101110001001011111": [3, 2, 3, 2, 7, 2, 3, 2, 3], "11100010111110100011010100010111": [3, 2, 3, 2, 7, 2, 3, 2, 3], "11010011101111101000011000101101": [5, 2, 3, 2, 37, 2, 5, 2, 3], "10001101001101100110101011111001": [5, 2, 3, 2, 37, 2, 5, 2, 3], "10010111010110000011101001110001": [5, 2, 79, 2, 71, 2, 79, 2, 13], "10011101100000011110011110111001": [3, 2, 3, 2, 7, 2, 3, 2, 3], "11111011100101100101111100001011": [3, 2, 5, 2, 5, 2, 3, 2, 11], "11100010111111100010100011000111": [13, 2, 3, 2, 79, 2, 5, 2, 3], "10001110110001000001000010010011": [3, 2, 3, 2, 7, 2, 3, 2, 3], "10010011111011111101100101101111": [3, 2, 5, 2, 7, 2, 3, 2, 11], "10001011110101001111111011000001": [3, 2, 3, 2, 7, 2, 3, 2, 3], "10010110101100011010100000011011": [3, 53, 3, 3, 5, 3, 3, 23, 3], "11000011000001101100100001111111": [3, 2, 5, 2, 7, 2, 3, 2, 7], "11001100110000110010001110000101": [3, 2, 5, 2, 7, 2, 3, 2, 11], "10011010101011110011011010000111": [13, 2, 3, 2, 29, 2, 11, 2, 3], "11001110000111111001000000100111": [3, 2, 5, 2, 7, 2, 3, 2, 11], "10110001100100111111010100001101": [3, 7, 13, 3, 23, 43, 3, 19, 7], "11100111110010010100001101010001": [5, 2, 17, 2, 37, 2, 5, 2, 61], "11101010111011011110111001111111": [19, 2, 3, 2, 23, 2, 11, 2, 3], "11111111101000001010110100100101": [5, 2, 3, 2, 29, 2, 5, 2, 3], "10000101000111100111001100101011": [3, 2, 5, 2, 7, 2, 3, 2, 11], "11111100000110001001010011111011": [3, 2, 3, 2, 7, 2, 3, 2, 3], "11000011000011111111100010000101": [3, 2, 5, 2, 7, 2, 3, 2, 11], "10111101010111101000000100100011": [3, 2, 5, 2, 7, 2, 3, 2, 11], "11011110111100100011111100001111": [7, 13, 3, 31, 11, 3, 7, 7, 3], "11010010111111001110001111111011": [5, 2, 17, 2, 37, 2, 5, 2, 13], "11001100011001001001101010010111": [3, 2, 5, 2, 7, 2, 3, 2, 11], "10000011101100111101011100110011": [3, 2, 3, 2, 7, 2, 3, 2, 3], "10011000001001000110010001100011": [3, 2, 3, 2, 7, 2, 3, 2, 3], "10000101111111101111111011100101": [3, 2, 5, 2, 7, 2, 3, 2, 11], "10100110010111001110111001101001": [7, 2, 3, 2, 43, 2, 73, 2, 3], "10111010011101100100111001001101": [3, 2, 3, 2, 7, 2, 3, 2, 3], "11010001000111111100101010110011": [3, 2, 3, 2, 7, 2, 3, 2, 3], "10110100111001000010101100001011": [3, 7, 3, 3, 5, 3, 3, 7, 3], "11010101101001110100111100101001": [5, 2, 3, 2, 37, 2, 5, 2, 3], "10101100100001111110000100000011": [5, 2, 17, 2, 37, 2, 5, 2, 47], "10001001000100110001111111100011": [3, 2, 5, 2, 7, 2, 3, 2, 11], "11100100100101101101100011100111": [3, 2, 3, 2, 7, 2, 3, 2, 3], "11110000111000111111000011011111": [3, 2, 5, 2, 5, 2, 3, 2, 11], "11100100110111100001101001000011": [3, 2, 5, 2, 7, 2, 3, 2, 11], "11010010011110001100010011111011": [3, 2, 3, 2, 7, 2, 3, 2, 3], "10111011011110011010011011100001": [3, 5, 7, 3, 31, 11, 3, 73, 7], "10100101111000010011110000100111": [3, 2, 5, 2, 7, 2, 3, 2, 11], "11110000001101111110000010010001": [37, 5, 3, 17, 5, 3, 5, 29, 3], "11011000011101101010110101101001": [3, 2, 3, 2, 7, 2, 3, 2, 3], "10111101011110011010111101111111": [3, 2, 3, 2, 7, 2, 3, 2, 3], "10001000000111000000011101000111": [83, 2, 3, 2, 13, 2, 19, 2, 3], "11100000000101100011100110011001": [3, 2, 5, 2, 7, 2, 3, 2, 7], "10101000100011000100100000011011": [7, 2, 3, 2, 43, 2, 11, 2, 3], "11111010100110001101111101111101": [3, 2, 5, 2, 7, 2, 3, 2, 7], "10110010000010001101100100000011": [13, 2, 3, 2, 17, 2, 5, 2, 3], "11010111001001010100110000011101": [3, 2, 13, 2, 31, 2, 3, 2, 7], "11010111101110011000001111100111": [3, 2, 5, 2, 5, 2, 3, 2, 7], "10110100000110110101101110111111": [3, 2, 5, 2, 5, 2, 3, 2, 11], "11101010010101000000010101011011": [3, 11, 3, 3, 5, 3, 3, 19, 3], "10011011000110011111100101101001": [3, 2, 3, 2, 7, 2, 3, 2, 3], "11011101101110000000000011100001": [3, 2, 5, 2, 7, 2, 3, 2, 11], "10111010000100011001110100001001": [3, 2, 5, 2, 7, 2, 3, 2, 11], "11010010111001010001100111101011": [3, 2, 3, 2, 7, 2, 3, 2, 3], "11101111011000110110000101110001": [7, 2, 3, 2, 43, 2, 53, 2, 3], "11000111101101010110110010110001": [5, 2, 3, 2, 37, 2, 5, 2, 3], "11111000101111010000110001100111": [3, 2, 3, 2, 7, 2, 3, 2, 3], "11110100111011100110110001101101": [3, 2, 5, 2, 5, 2, 3, 2, 11], "11001011011001110010101100000101": [3, 2, 5, 2, 7, 2, 3, 2, 11], "10110000001001001111111111011111": [3, 2, 5, 2, 5, 2, 3, 2, 11], "10100011110100011001000010010011": [3, 2, 5, 2, 7, 2, 3, 2, 11], "11010101100101000101000111111011": [3, 2, 3, 2, 11, 2, 3, 2, 3], "11110010101111110000000001100001": [5, 7, 3, 31, 5, 3, 11, 7, 3], "10010001011011010011100001101011": [3, 2, 5, 2, 7, 2, 3, 2, 11], "11011100101111010010011010011001": [3, 2, 3, 2, 7, 2, 3, 2, 3], "11010011000010110010111000000011": [7, 2, 59, 2, 17, 2, 7, 2, 41], "11101101000000100010101110101001": [31, 11, 3, 7, 5, 3, 31, 5, 3], "11110001000010110011011010110001": [3, 2, 5, 2, 7, 2, 3, 2, 11], "11111100100001110010001111001011": [5, 2, 3, 2, 13, 2, 5, 2, 3], "10001011101111010011111110011011": [3, 23, 3, 3, 13, 3, 3, 7, 3], "10100010100001111111010101001111": [3, 2, 3, 2, 7, 2, 3, 2, 3], "10110010010100010111001001101011": [3, 2, 5, 2, 7, 2, 3, 2, 11], "10110010001000100000101111101111": [3, 2, 31, 2, 11, 2, 3, 2, 19], "10001110011010011001111100101101": [43, 2, 3, 2, 23, 2, 31, 2, 3], "11011110011010001011110100001101": [3, 2, 3, 2, 7, 2, 3, 2, 3], "11111100101011010001001100010101": [3, 7, 13, 3, 31, 5, 3, 17, 7], "11001110011001001000001001100101": [3, 2, 5, 2, 7, 2, 3, 2, 11], "10000011011101100000110010011001": [3, 2, 5, 2, 7, 2, 3, 2, 11], "10111000100000001111001101110101": [3, 2, 5, 2, 7, 2, 3, 2, 7], "10100001110000011001111100111111": [3, 2, 3, 2, 7, 2, 3, 2, 3], "11010000011110011011010001101111": [5, 2, 3, 2, 23, 2, 5, 2, 3], "11110010011100101101100011011111": [3, 2, 5, 2, 5, 2, 3, 2, 11], "10111101110110110000101101011011": [3, 2, 5, 2, 5, 2, 3, 2, 11], "10101000100111110011000111010111": [3, 2, 3, 2, 7, 2, 3, 2, 3], "10110111101000111100011101001111": [3, 2, 5, 2, 5, 2, 3, 2, 11], "10100011110001001000011001000111": [3, 2, 5, 2, 7, 2, 3, 2, 11], "11001011010011100111111000101111": [7, 2, 19, 2, 5, 2, 5, 2, 47], "10101110111110101001010000010111": [5, 2, 3, 2, 13, 2, 5, 2, 3], "11100010000011001100010110010011": [3, 2, 5, 2, 7, 2, 3, 2, 11], "11101110000110011111000100101011": [7, 2, 3, 2, 43, 2, 73, 2, 3], "11010011111111010100000011100011": [5, 2, 3, 2, 37, 2, 5, 2, 3], "10101101000010010010111001011101": [3, 2, 5, 2, 7, 2, 3, 2, 7], "10010110100101100000001001111011": [5, 13, 3, 31, 5, 3, 29, 7, 3], "11001110101110110100100101100101": [3, 2, 3, 2, 7, 2, 3, 2, 3], "11001111000011100101101111101101": [3, 2, 5, 2, 5, 2, 3, 2, 11], "11110001010000100111101110101101": [3, 2, 3, 2, 7, 2, 3, 2, 3], "11111011111100001001110000111101": [3, 2, 5, 2, 5, 2, 3, 2, 11], "10000100101111110010010110001101": [3, 2, 5, 2, 7, 2, 3, 2, 11], "10110000000110110100110110001001": [3, 2, 5, 2, 7, 2, 3, 2, 7], "11000011101001000111101101101101": [3, 2, 3, 2, 7, 2, 3, 2, 3], "11001001110010000100010010000011": [3, 2, 3, 2, 7, 2, 3, 2, 3], "10010101011010110010101100000001": [3, 2, 5, 2, 7, 2, 3, 2, 7], "11011101011101011001101001111011": [3, 13, 3, 3, 13, 3, 3, 23, 3], "11100011001100101001000001000001": [3, 2, 3, 2, 7, 2, 3, 2, 3], "11011100011100101010011100110101": [7, 2, 3, 2, 43, 2, 73, 2, 3], "11101010100110101111000101000111": [5, 2, 3, 2, 37, 2, 5, 2, 3], "11111010000011100110001101011101": [3, 2, 3, 2, 7, 2, 3, 2, 3], "11110110000001010000100011010111": [3, 7, 3, 3, 5, 3, 3, 23, 3], "10111010111101100001011011010111": [3, 2, 5, 2, 5, 2, 3, 2, 11], "10001000101101011101101001111101": [3, 2, 3, 2, 7, 2, 3, 2, 3], "10000111110101100011111010001101": [3, 2, 3, 2, 7, 2, 3, 2, 3], "11000101101010001000100010111001": [71, 2, 83, 2, 23, 2, 7, 2, 41], "11111111000010111011011100010011": [3, 2, 5, 2, 5, 2, 3, 2, 11], "10111111010011000110100110100101": [3, 2, 3, 2, 7, 2, 3, 2, 3], "10000110101101101001110101000011": [3, 2, 5, 2, 7, 2, 3, 2, 11], "10001010100000110000001100011011": [13, 2, 3, 2, 79, 2, 17, 2, 3], "10000101101101000111000100001101": [13, 2, 37, 2, 79, 2, 7, 2, 19], "10101001011101001010110111001101": [3, 2, 3, 2, 7, 2, 3, 2, 3], "10001001000111100101001100101001": [3, 2, 5, 2, 7, 2, 3, 2, 11], "10111011110000110000011001111101": [3, 2, 3, 2, 7, 2, 3, 2, 3], "10110001100101100011100011000011": [7, 13, 3, 17, 5, 3, 37, 7, 3], "10101110011110000011101010000101": [5, 2, 17, 2, 37, 2, 5, 2, 23], "11001110101101011100101110010001": [3, 2, 3, 2, 7, 2, 3, 2, 3], "11000011000000110011111100100111": [3, 2, 5, 2, 7, 2, 3, 2, 7], "11111111011110101111001000010111": [3, 2, 5, 2, 7, 2, 3, 2, 11], "11101001111001111111100000011101": [3, 2, 5, 2, 5, 2, 3, 2, 11], "11000111011000011100110000010011": [3, 7, 3, 3, 5, 3, 3, 17, 3], "10110001011101000110011011111101": [3, 5, 13, 3, 13, 43, 3, 71, 7], "11011010001111110000010000110011": [3, 2, 5, 2, 7, 2, 3, 2, 11], "10110000000010001101100101100111": [3, 2, 5, 2, 7, 2, 3, 2, 11], "10000101111101111101011110110011": [3, 5, 3, 3, 31, 3, 3, 7, 3], "11000001111100010111001111111101": [31, 2, 11, 2, 5, 2, 29, 2, 17], "11110010000100011110111000101011": [3, 7, 13, 3, 11, 5, 3, 73, 7], "11111000010101101111101010101111": [3, 79, 3, 3, 17, 3, 3, 71, 3], "11110111110011110110111010100101": [3, 2, 5, 2, 7, 2, 3, 2, 11], "10000001000110101100101101000111": [3, 2, 5, 2, 7, 2, 3, 2, 7], "11100000011000010000001110100101": [3, 2, 3, 2, 7, 2, 3, 2, 3], "11010001111100001010101011010111": [3, 2, 3, 2, 7, 2, 3, 2, 3], "11010011110110110100000111000001": [47, 2, 7, 2, 13, 2, 19, 2, 23], "10000111010000010000111010010111": [5, 2, 17, 2, 19, 2, 5, 2, 43], "10110111011100100100110110010011": [13, 2, 3, 2, 19, 2, 71, 2, 3], "11111001001001101100001111110001": [3, 2, 3, 2, 7, 2, 3, 2, 3], "11101100110100111110100111001101": [3, 2, 5, 2, 5, 2, 3, 2, 11], "10101111111010101000111110001111": [5, 13, 3, 31, 7, 3, 7, 7, 3], "10001111100110000011010001100101": [7, 7, 3, 11, 5, 3, 73, 7, 3], "11011111011110110110000000111011": [3, 2, 5, 2, 5, 2, 3, 2, 11], "11101001010001101000100111111101": [3, 2, 3, 2, 7, 2, 3, 2, 3], "11000000100111000001101101010111": [3, 5, 3, 3, 5, 3, 3, 17, 3], "10000001110111101000010110001001": [3, 2, 5, 2, 7, 2, 3, 2, 11], "10011001011001111101101110000011": [3, 2, 3, 2, 7, 2, 3, 2, 3], "10010010001100000000110001001111": [3, 2, 3, 2, 7, 2, 3, 2, 3], "10100000000001001011011010101001": [5, 2, 3, 2, 37, 2, 5, 2, 3], "10100111100001110000011101111011": [3, 2, 3, 2, 7, 2, 3, 2, 3], "10001100111111110011001101110011": [3, 2, 5, 2, 5, 2, 3, 2, 11], "11111111100110111111100001100101": [3, 2, 5, 2, 7, 2, 3, 2, 7], "10110011111001000000010001111011": [3, 2, 5, 2, 7, 2, 3, 2, 7], "11101000111110000111000110010111": [3, 2, 3, 2, 7, 2, 3, 2, 3], "11000111111101011010000001011011": [5, 2, 3, 2, 13, 2, 5, 2, 3], "10000000010011110101001011001011": [3, 2, 5, 2, 7, 2, 3, 2, 11], "10110111111101111011101101011011": [3, 2, 3, 2, 7, 2, 3, 2, 3], "11010111100110110110101111100101": [13, 7, 3, 53, 17, 3, 7, 17, 3], "10111110010000101011101000010111": [3, 7, 13, 3, 31, 5, 3, 73, 7], "11101100001101011001111001001011": [3, 2, 3, 2, 7, 2, 3, 2, 3], "11011100100100011011001001001011": [3, 2, 5, 2, 7, 2, 3, 2, 11], "10011110000000100110011110010001": [3, 2, 5, 2, 7, 2, 3, 2, 11], "11101000110111110011001010101111": [5, 2, 17, 2, 5, 2, 5, 2, 13], "11110101110001001010011110011101": [3, 7, 13, 3, 31, 5, 3, 73, 7], "10001111110001101111010001101111": [3, 2, 5, 2, 5, 2, 3, 2, 11], "11100010101110110001000101110111": [3, 2, 3, 2, 7, 2, 3, 2, 3], "11001101011101101000100110011011": [3, 2, 3, 2, 7, 2, 3, 2, 3], "10101000000001011100100101100111": [3, 2, 5, 2, 7, 2, 3, 2, 11], "11011100110001101111111011100001": [3, 2, 5, 2, 5, 2, 3, 2, 11], "10111110000111011101111111100011": [3, 2, 5, 2, 7, 2, 3, 2, 11], "11101111000001100011010111001011": [3, 2, 3, 2, 7, 2, 3, 2, 3], "10100011010101100111101100001111": [3, 2, 3, 2, 7, 2, 3, 2, 3], "11110001010010001000111011100101": [3, 2, 5, 2, 7, 2, 3, 2, 11], "11110111110111010101101011100001": [3, 13, 3, 3, 43, 3, 3, 7, 3], "10110001111001100010101001011011": [3, 7, 11, 3, 17, 5, 3, 7, 7], "10011111001010000111000100111001": [3, 2, 5, 2, 7, 2, 3, 2, 11], "11011010001111111011101111101101": [3, 11, 23, 3, 11, 5, 3, 13, 29], "10101100111100100100000100001101": [3, 2, 5, 2, 7, 2, 3, 2, 11], "11000111000011011100100110111011": [3, 2, 3, 2, 7, 2, 3, 2, 3], "11000010111011111111001100010001": [3, 2, 3, 2, 7, 2, 3, 2, 3], "10110101101000000100110111101111": [3, 2, 3, 2, 7, 2, 3, 2, 3], "11101001111110010111010000111011": [3, 2, 5, 2, 5, 2, 3, 2, 11], "11100010101111010011000100000001": [3, 2, 5, 2, 7, 2, 3, 2, 11], "11011010010000101101100001100111": [3, 2, 5, 2, 7, 2, 3, 2, 11], "11010110110000110111111010001001": [3, 2, 3, 2, 7, 2, 3, 2, 3], "10001011001001000110101110111111": [83, 2, 3, 2, 13, 2, 17, 2, 3], "10110001110011100000011101001011": [3, 2, 5, 2, 7, 2, 3, 2, 11], "10000010111010010111011000000101": [3, 2, 5, 2, 7, 2, 3, 2, 11], "11101110110111001011010101100111": [7, 7, 3, 31, 11, 3, 7, 7, 3], "11010110100011101001100111100011": [7, 2, 3, 2, 43, 2, 73, 2, 3], "10111100110101110100001101100111": [3, 5, 11, 3, 31, 43, 3, 73, 7], "11001010111101111000111101100101": [3, 2, 5, 2, 5, 2, 3, 2, 11], "10111011110111111001111000010001": [3, 2, 5, 2, 5, 2, 3, 2, 11], "11101110010100110011111110010011": [3, 2, 5, 2, 5, 2, 3, 2, 11], "11001100110010000001100100111111": [3, 2, 5, 2, 7, 2, 3, 2, 11], "11111100110011011111011101011011": [3, 7, 13, 3, 31, 5, 3, 67, 7], "10100100011100111011110111000101": [5, 2, 3, 2, 37, 2, 5, 2, 3], "11110111111111101000110011010011": [3, 2, 5, 2, 7, 2, 3, 2, 11], "10100000000111111111001111010011": [3, 2, 3, 2, 7, 2, 3, 2, 3], "10100001110001010000101101101111": [3, 2, 5, 2, 7, 2, 3, 2, 11], "10100100110011110111000110110101": [5, 2, 3, 2, 37, 2, 5, 2, 3], "11011101101101001110000010000011": [3, 2, 5, 2, 7, 2, 3, 2, 7], "10011111010001101110110001101001": [3, 2, 3, 2, 7, 2, 3, 2, 3], "10011001001110110110001111011111": [3, 2, 5, 2, 5, 2, 3, 2, 11], "10111100101100011110000001000011": [7, 13, 3, 11, 5, 3, 73, 7, 3], "11010111110011111000101110011111": [3, 2, 5, 2, 7, 2, 3, 2, 11], "11001010001011001011001010100001": [3, 2, 17, 2, 37, 2, 3, 2, 31], "10011010010001001101011001110111": [3, 7, 13, 3, 29, 5, 3, 73, 7], "10101100010010010010111001101111": [3, 7, 13, 3, 31, 43, 3, 17, 7], "11010011011000011111101110101101": [3, 2, 5, 2, 5, 2, 3, 2, 11], "10001011101010110100010000001111": [3, 53, 3, 3, 5, 3, 3, 23, 3], "11001000000110100110010001011011": [3, 2, 5, 2, 7, 2, 3, 2, 11], "11011001001010101010110011101011": [3, 2, 3, 2, 79, 2, 3, 2, 3], "10010101000101000010000011110001": [17, 2, 3, 2, 59, 2, 19, 2, 3], "11010000111111011110101111100001": [3, 2, 5, 2, 5, 2, 3, 2, 11], "10001010100100101010011011100101": [7, 13, 3, 31, 5, 3, 73, 5, 3], "11100100111100000111000111111001": [5, 2, 3, 2, 37, 2, 5, 2, 3], "10101001000000110001110111100011": [7, 7, 3, 23, 5, 3, 73, 7, 3], "11001101000001011000100001000011": [7, 2, 3, 2, 11, 2, 5, 2, 3], "10010100110100011011111110101111": [3, 2, 5, 2, 5, 2, 3, 2, 11], "10011010001000101100100111001011": [41, 5, 3, 47, 5, 3, 5, 5, 3], "11100100100101100100111011100001": [3, 2, 5, 2, 7, 2, 3, 2, 11], "10110000001101000010101101010111": [7, 13, 3, 31, 5, 3, 13, 7, 3], "11110101010010111110010010101001": [3, 2, 3, 2, 7, 2, 3, 2, 3], "11001001100101111101001000011101": [3, 7, 13, 3, 13, 43, 3, 7, 7], "11111011111100000100111100111001": [3, 2, 5, 2, 5, 2, 3, 2, 11], "11100111000110010011111001101111": [3, 2, 5, 2, 5, 2, 3, 2, 11], "10011010000001110101100000000101": [7, 2, 3, 2, 43, 2, 11, 2, 3], "11011111100001000111100110111011": [3, 2, 5, 2, 5, 2, 3, 2, 11], "10000100000101011111101101111101": [11, 2, 3, 2, 23, 2, 31, 2, 3], "11110010110110001100000011000111": [3, 2, 5, 2, 7, 2, 3, 2, 11], "10101010010101011101100101011001": [3, 7, 13, 3, 31, 43, 3, 73, 7], "11001000111011111010000111001011": [59, 2, 3, 2, 97, 2, 5, 2, 3], "10111000010011000100011110001111": [3, 2, 5, 2, 7, 2, 3, 2, 11], "10100100001101011110011100011111": [7, 2, 3, 2, 11, 2, 73, 2, 3], "11010001001101001001101010010101": [3, 29, 3, 3, 5, 3, 3, 7, 3], "10110110110001111111010011011011": [11, 7, 3, 11, 53, 3, 7, 47, 3], "10010001111110110001011000001011": [3, 2, 5, 2, 7, 2, 3, 2, 11], "10010011101010101000111101011111": [3, 7, 13, 3, 31, 5, 3, 73, 7], "10101011000110110001101111000111": [7, 2, 3, 2, 43, 2, 47, 2, 3], "11000000101000111110010110011101": [3, 2, 5, 2, 7, 2, 3, 2, 11], "10101010010101110000001101001001": [3, 2, 5, 2, 7, 2, 3, 2, 7], "11001000010110011010001100010011": [3, 2, 5, 2, 7, 2, 3, 2, 11], "11000000111010001000010010101101": [3, 5, 13, 3, 31, 43, 3, 37, 7], "11001111111100100110111100101001": [7, 2, 67, 2, 5, 2, 79, 2, 31], "11010000101000101101101001100001": [5, 2, 17, 2, 37, 2, 5, 2, 13], "10001011111000011111100000111101": [13, 2, 3, 2, 13, 2, 97, 2, 3], "10011110011001100111100101000111": [7, 2, 3, 2, 43, 2, 73, 2, 3], "11000101111011111110110000101011": [5, 2, 29, 2, 5, 2, 11, 2, 7], "10111011100011100110111110111111": [7, 47, 5, 7, 17, 11, 43, 5, 47], "11000001001110111100000011001001": [3, 2, 5, 2, 7, 2, 3, 2, 11], "10000000000110111111000011111101": [3, 2, 5, 2, 7, 2, 3, 2, 11], "11010000010111101111001000000001": [5, 2, 17, 2, 37, 2, 5, 2, 7], "11001101111011111000111100000111": [3, 2, 5, 2, 5, 2, 3, 2, 7], "11000000111000010000001101010111": [3, 7, 13, 3, 29, 13, 3, 73, 7], "10001001001010100111110000101111": [5, 2, 11, 2, 37, 2, 5, 2, 7], "11100110100001010110100111000011": [3, 2, 5, 2, 7, 2, 3, 2, 11], "11010111101010001101100000111101": [3, 2, 3, 2, 7, 2, 3, 2, 3], "10110110010111001000000010001101": [3, 2, 5, 2, 7, 2, 3, 2, 11], "10010011010101110101000011111101": [3, 2, 3, 2, 83, 2, 3, 2, 3], "11110010011000111100100101001111": [3, 2, 3, 2, 7, 2, 3, 2, 3]}'
p6
s.