(dp0
S'a'
p1
S'y'
p2
sS'c'
p3
S'e'
p4
sS'b'
p5
S'h'
p6
sg4
S'o'
p7
sS'd'
p8
S's'
p9
sS'g'
p10
S'v'
p11
sS'f'
p12
g3
sS'i'
p13
g8
sg6
S'x'
p14
sS'k'
p15
g13
sS'j'
p16
S'u'
p17
sS'm'
p18
S'l'
p19
sg19
g10
sg7
g15
sS'n'
p20
g5
sS'q'
p21
S'z'
p22
sS'p'
p23
S'r'
p24
sg9
g20
sg24
S't'
p25
sg17
g16
sg25
S'w'
p26
sg26
g12
sg11
g23
sg2
g1
sg14
g18
sg22
g21
s.